(dp0
S'Streptococcus_parasanguinis_ATCC_15912_uid48315/NC_015678.fna'
p1
I01
sS'Escherichia_coli_SE11_uid18057/NC_011419.fna'
p2
I01
sS'Staphylococcus_aureus_USA300_TCH1516_uid19489/NC_012417.fna'
p3
I01
sS'Gardnerella_vaginalis_HMP9231_uid51067/NC_017456.rnt'
p4
I01
sS'Gardnerella_vaginalis_409_05_uid31001/NC_013721.rnt'
p5
I01
sS'Propionibacterium_propionicum_F0230a_uid49291/NC_018142.ptt'
p6
I01
sS'Prevotella_melaninogenica_ATCC_25845_uid31383/NC_014371.fna'
p7
I01
sS'Staphylococcus_aureus_USA300_TCH1516_uid19489/NC_010063.fna'
p8
I01
sS'Escherichia_coli_SE11_uid18057/NC_011407.ptt'
p9
I01
sS'Lactobacillus_reuteri_SD2112_uid30643/NC_015701.rnt'
p10
I01
sS'Enterococcus_faecium_DO_uid30627/NC_017961.ptt'
p11
I01
sS'Prevotella_melaninogenica_ATCC_25845_uid31383/NC_014371.rnt'
p12
I01
sS'Enterococcus_faecium_DO_uid30627/NC_017961.rnt'
p13
I01
sS'Lactobacillus_reuteri_SD2112_uid30643/NC_015697.fna'
p14
I01
sS'Escherichia_coli_SE11_uid18057/NC_011411.fna'
p15
I01
sS'Lactobacillus_reuteri_SD2112_uid30643/NC_015700.fna'
p16
I01
sS'Staphylococcus_aureus_USA300_TCH1516_uid19489/NC_012417.ptt'
p17
I01
sS'Mobiluncus_curtisii_ATCC_43063_uid31519/NC_014246.rnt'
p18
I01
sS'Lactobacillus_reuteri_SD2112_uid30643/NC_015698.ptt'
p19
I01
sS'Escherichia_coli_SE11_uid18057/NC_011419.ptt'
p20
I01
sS'Helicobacter_pylori_35A_uid34603/NC_017360.ptt'
p21
I01
sS'Bifidobacterium_breve_ACS_071_V_Sch8b_uid51077/NC_017218.ptt'
p22
I01
sS'Propionibacterium_acnes_SK137_uid31005/NC_014039.fna'
p23
I01
sS'Lactobacillus_reuteri_SD2112_uid30643/NC_015697.ptt'
p24
I01
sS'Enterococcus_faecium_DO_uid30627/NC_017960.ptt'
p25
I01
sS'Helicobacter_pylori_83_uid34609/NC_017375.ptt'
p26
I01
sS'Propionibacterium_acnes_SK137_uid31005/NC_014039.rnt'
p27
I01
sS'Rothia_dentocariosa_ATCC_17931_uid48447/NC_014643.fna'
p28
I01
sS'Aerococcus_urinae_ACS_120_V_Col10a_uid51073/NC_015278.fna'
p29
I01
sS'Prevotella_melaninogenica_ATCC_25845_uid31383/NC_014370.rnt'
p30
I01
sS'Lactobacillus_reuteri_SD2112_uid30643/NC_015699.ptt'
p31
I01
sS'Escherichia_coli_SE11_uid18057/NC_011413.fna'
p32
I01
sS'Filifactor_alocis_ATCC_35896_uid30485/NC_016630.rnt'
p33
I01
sS'Lactobacillus_reuteri_SD2112_uid30643/NC_015698.fna'
p34
I01
sS'Clostridiales_genomosp__BVAB3_UPII9_5_uid42555/NC_013895.ptt'
p35
I01
sS'Escherichia_coli_SE11_uid18057/NC_011407.fna'
p36
I01
sS'Prevotella_denticola_F0289_uid49293/NC_015311.fna'
p37
I01
sS'Enterococcus_faecium_DO_uid30627/NC_017962.ptt'
p38
I01
sS'Lactobacillus_reuteri_SD2112_uid30643/NC_015699.fna'
p39
I01
sS'Escherichia_coli_SE11_uid18057/NC_011408.ptt'
p40
I01
sS'Prevotella_denticola_F0289_uid49293/NC_015311.rnt'
p41
I01
sS'Enterococcus_faecium_DO_uid30627/NC_017963.ptt'
p42
I01
sS'Aerococcus_urinae_ACS_120_V_Col10a_uid51073/NC_015278.ptt'
p43
I01
sS'Prevotella_melaninogenica_ATCC_25845_uid31383/NC_014371.ptt'
p44
I01
sS'Escherichia_coli_SE11_uid18057/NC_011415.rnt'
p45
I01
sS'Clostridiales_genomosp__BVAB3_UPII9_5_uid42555/NC_013895.fna'
p46
I01
sS'Prevotella_melaninogenica_ATCC_25845_uid31383/NC_014370.ptt'
p47
I01
sS'Staphylococcus_aureus_USA300_TCH959_uid19921/NC_010066.fna'
p48
I01
sS'Filifactor_alocis_ATCC_35896_uid30485/NC_016630.ptt'
p49
I01
sS'Escherichia_coli_SE11_uid18057/NC_011408.fna'
p50
I01
sS'Enterococcus_faecium_DO_uid30627/NC_017960.rnt'
p51
I01
sS'Enterococcus_faecium_DO_uid30627/NC_017962.fna'
p52
I01
sS'Prevotella_melaninogenica_ATCC_25845_uid31383/NC_014370.fna'
p53
I01
sS'Staphylococcus_aureus_USA300_TCH959_uid19921/NC_010066.ptt'
p54
I01
sS'Bifidobacterium_breve_ACS_071_V_Sch8b_uid51077/NC_017218.rnt'
p55
I01
sS'Filifactor_alocis_ATCC_35896_uid30485/NC_016630.fna'
p56
I01
sS'Escherichia_coli_SE11_uid18057/NC_011415.fna'
p57
I01
sS'Staphylococcus_aureus_TCH60_uid31539/NC_017342.rnt'
p58
I01
sS'Streptococcus_parasanguinis_ATCC_15912_uid48315/NC_015678.ptt'
p59
I01
sS'Streptococcus_pneumoniae_TCH8431_19A_uid34659/NC_014251.rnt'
p60
I01
sS'Gardnerella_vaginalis_HMP9231_uid51067/NC_017456.ptt'
p61
I01
sS'Gardnerella_vaginalis_ATCC_14019_uid31473/NC_014644.ptt'
p62
I01
sS'Mobiluncus_curtisii_ATCC_43063_uid31519/NC_014246.ptt'
p63
I01
sS'Rothia_dentocariosa_ATCC_17931_uid48447/NC_014643.rnt'
p64
I01
sS'Helicobacter_pylori_35A_uid34603/NC_017360.fna'
p65
I01
sS'Lactobacillus_reuteri_SD2112_uid30643/NC_015701.fna'
p66
I01
sS'Lactobacillus_reuteri_SD2112_uid30643/NC_015700.ptt'
p67
I01
sS'Staphylococcus_aureus_TCH60_uid31539/NC_017345.fna'
p68
I01
sS'Gardnerella_vaginalis_ATCC_14019_uid31473/NC_014644.rnt'
p69
I01
sS'Escherichia_coli_SE11_uid18057/NC_011416.fna'
p70
I01
sS'Escherichia_coli_SE11_uid18057/NC_011411.ptt'
p71
I01
sS'Gardnerella_vaginalis_409_05_uid31001/NC_013721.fna'
p72
I01
sS'Escherichia_coli_SE11_uid18057/NC_011416.ptt'
p73
I01
sS'Prevotella_denticola_F0289_uid49293/NC_015311.ptt'
p74
I01
sS'Gardnerella_vaginalis_ATCC_14019_uid31473/NC_014644.fna'
p75
I01
sS'Propionibacterium_acnes_SK137_uid31005/NC_014039.ptt'
p76
I01
sS'Gardnerella_vaginalis_409_05_uid31001/NC_013721.ptt'
p77
I01
sS'Propionibacterium_propionicum_F0230a_uid49291/NC_018142.rnt'
p78
I01
sS'Mobiluncus_curtisii_ATCC_43063_uid31519/NC_014246.fna'
p79
I01
sS'Enterococcus_faecium_DO_uid30627/NC_017961.fna'
p80
I01
sS'Staphylococcus_aureus_TCH60_uid31539/NC_017342.fna'
p81
I01
sS'Staphylococcus_aureus_USA300_TCH1516_uid19489/NC_010079.fna'
p82
I01
sS'Helicobacter_pylori_35A_uid34603/NC_017360.rnt'
p83
I01
sS'Helicobacter_pylori_83_uid34609/NC_017375.rnt'
p84
I01
sS'Staphylococcus_aureus_USA300_TCH1516_uid19489/NC_010079.ptt'
p85
I01
sS'Gardnerella_vaginalis_HMP9231_uid51067/NC_017456.fna'
p86
I01
sS'Streptococcus_pneumoniae_TCH8431_19A_uid34659/NC_014251.ptt'
p87
I01
sS'Bifidobacterium_breve_ACS_071_V_Sch8b_uid51077/NC_017218.fna'
p88
I01
sS'Staphylococcus_aureus_TCH60_uid31539/NC_017345.ptt'
p89
I01
sS'Lactobacillus_reuteri_SD2112_uid30643/NC_015697.rnt'
p90
I01
sS'Staphylococcus_aureus_USA300_TCH1516_uid19489/NC_010063.ptt'
p91
I01
sS'Aerococcus_urinae_ACS_120_V_Col10a_uid51073/NC_015278.rnt'
p92
I01
sS'Streptococcus_pneumoniae_TCH8431_19A_uid34659/NC_014251.fna'
p93
I01
sS'Escherichia_coli_SE11_uid18057/NC_011413.ptt'
p94
I01
sS'Escherichia_coli_SE11_uid18057/NC_011415.ptt'
p95
I01
sS'Propionibacterium_propionicum_F0230a_uid49291/NC_018142.fna'
p96
I01
sS'Staphylococcus_aureus_TCH60_uid31539/NC_017342.ptt'
p97
I01
sS'Clostridiales_genomosp__BVAB3_UPII9_5_uid42555/NC_013895.rnt'
p98
I01
sS'Helicobacter_pylori_83_uid34609/NC_017375.fna'
p99
I01
sS'Streptococcus_parasanguinis_ATCC_15912_uid48315/NC_015678.rnt'
p100
I01
sS'Enterococcus_faecium_DO_uid30627/NC_017963.fna'
p101
I01
sS'Enterococcus_faecium_DO_uid30627/NC_017960.fna'
p102
I01
sS'Staphylococcus_aureus_USA300_TCH1516_uid19489/NC_010079.rnt'
p103
I01
sS'Enterococcus_faecium_DO_uid30627/NC_017962.rnt'
p104
I01
sS'Rothia_dentocariosa_ATCC_17931_uid48447/NC_014643.ptt'
p105
I01
sS'Lactobacillus_reuteri_SD2112_uid30643/NC_015701.ptt'
p106
I01
s.